target datalayout = "e-m:e-p270:32:32-p271:32:32-p272:64:64-i64:64-i128:128-f80:128-n8:16:32:64-S128"
target triple = "x86_64-pc-linux-gnu"

%struct.VariableStatData = type { ptr, ptr, ptr, ptr, i32, i32, i32, i8, i8 }
%struct.AttStatsSlot = type { i32, i32, i32, ptr, i32, ptr, i32, ptr, ptr }
%struct.FormData_pg_statistic = type { i32, i16, i8, float, i32, float, i16, i16, i16, i16, i16, i32, i32, i32, i32, i32, i32, i32, i32, i32, i32 }
%struct.RelOptInfo = type { i32, i32, ptr, double, i8, i8, i8, ptr, ptr, ptr, ptr, ptr, ptr, ptr, ptr, ptr, ptr, i32, i32, i32, i16, i16, ptr, ptr, ptr, ptr, ptr, ptr, ptr, ptr, i32, double, double, ptr, ptr, ptr, i32, i32, i32, i32, i8, ptr, ptr, ptr, ptr, ptr, %struct.QualCost, i32, ptr, i8, i8, ptr, ptr, ptr, ptr, i32, ptr, i8, ptr, ptr, ptr, ptr, ptr, ptr }
%struct.QualCost = type { double, double }
%struct.HeapTupleData = type { i32, %struct.ItemPointerData, i32, ptr }
%struct.ItemPointerData = type { %struct.BlockIdData, i16 }
%struct.BlockIdData = type { i16, i16 }
%struct.HeapTupleHeaderData = type { %union.anon.4, %struct.ItemPointerData, i16, i16, i8, [0 x i8] }
%union.anon.4 = type { %struct.HeapTupleFields }
%struct.HeapTupleFields = type { i32, i32, %union.anon.5 }
%union.anon.5 = type { i32 }

; Function Attrs: inlinehint nounwind uwtable
define internal ptr @GETSTRUCT(ptr noundef %0) #1 {
  %2 = alloca ptr, align 8
  store ptr %0, ptr %2, align 8
  %3 = load ptr, ptr %2, align 8
  %4 = getelementptr inbounds nuw %struct.HeapTupleData, ptr %3, i32 0, i32 3
  %5 = load ptr, ptr %4, align 8
  %6 = load ptr, ptr %2, align 8
  %7 = getelementptr inbounds nuw %struct.HeapTupleData, ptr %6, i32 0, i32 3
  %8 = load ptr, ptr %7, align 8
  %9 = getelementptr inbounds nuw %struct.HeapTupleHeaderData, ptr %8, i32 0, i32 4
  %10 = load i8, ptr %9, align 2
  %11 = zext i8 %10 to i32
  %12 = sext i32 %11 to i64
  %13 = getelementptr inbounds i8, ptr %5, i64 %12
  ret ptr %13
}

; Function Attrs: nounwind uwtable
define dso_local void @estimate_hash_bucket_stats(ptr noundef %0, ptr noundef %1, double noundef %2, ptr noundef %3, ptr noundef %4) #0 {
  %6 = alloca ptr, align 8
  %7 = alloca ptr, align 8
  %8 = alloca double, align 8
  %9 = alloca ptr, align 8
  %10 = alloca ptr, align 8
  %11 = alloca %struct.VariableStatData, align 8
  %12 = alloca double, align 8
  %13 = alloca double, align 8
  %14 = alloca double, align 8
  %15 = alloca double, align 8
  %16 = alloca i8, align 1
  %17 = alloca %struct.AttStatsSlot, align 8
  %18 = alloca i32, align 4
  %19 = alloca ptr, align 8
  store ptr %0, ptr %6, align 8
  store ptr %1, ptr %7, align 8
  store double %2, ptr %8, align 8
  store ptr %3, ptr %9, align 8
  store ptr %4, ptr %10, align 8
  call void @llvm.lifetime.start.p0(i64 48, ptr %11) #10
  call void @llvm.lifetime.start.p0(i64 8, ptr %12) #10
  call void @llvm.lifetime.start.p0(i64 8, ptr %13) #10
  call void @llvm.lifetime.start.p0(i64 8, ptr %14) #10
  call void @llvm.lifetime.start.p0(i64 8, ptr %15) #10
  call void @llvm.lifetime.start.p0(i64 1, ptr %16) #10
  call void @llvm.lifetime.start.p0(i64 64, ptr %17) #10
  %20 = load ptr, ptr %6, align 8
  %21 = load ptr, ptr %7, align 8
  call void @examine_variable(ptr noundef %20, ptr noundef %21, i32 noundef 0, ptr noundef %11)
  %22 = load ptr, ptr %9, align 8
  store double 0.000000e+00, ptr %22, align 8
  %23 = getelementptr inbounds nuw %struct.VariableStatData, ptr %11, i32 0, i32 2
  %24 = load ptr, ptr %23, align 8
  %25 = icmp ne ptr %24, null
  br i1 %25, label %26, label %43

26:                                               ; preds = %5
  %27 = getelementptr inbounds nuw %struct.VariableStatData, ptr %11, i32 0, i32 2
  %28 = load ptr, ptr %27, align 8
  %29 = call zeroext i1 @get_attstatsslot(ptr noundef %17, ptr noundef %28, i32 noundef 1, i32 noundef 0, i32 noundef 2)
  br i1 %29, label %30, label %42

30:                                               ; preds = %26
  %31 = getelementptr inbounds nuw %struct.AttStatsSlot, ptr %17, i32 0, i32 6
  %32 = load i32, ptr %31, align 8
  %33 = icmp sgt i32 %32, 0
  br i1 %33, label %34, label %41

34:                                               ; preds = %30
  %35 = getelementptr inbounds nuw %struct.AttStatsSlot, ptr %17, i32 0, i32 5
  %36 = load ptr, ptr %35, align 8
  %37 = getelementptr inbounds float, ptr %36, i64 0
  %38 = load float, ptr %37, align 4
  %39 = fpext float %38 to double
  %40 = load ptr, ptr %9, align 8
  store double %39, ptr %40, align 8
  br label %41

41:                                               ; preds = %34, %30
  call void @free_attstatsslot(ptr noundef %17)
  br label %42

42:                                               ; preds = %41, %26
  br label %43

43:                                               ; preds = %42, %5
  %44 = call double @get_variable_numdistinct(ptr noundef %11, ptr noundef %16)
  store double %44, ptr %13, align 8
  %45 = load i8, ptr %16, align 1, !range !4, !noundef !5
  %46 = trunc i8 %45 to i1
  br i1 %46, label %47, label %70

47:                                               ; preds = %43
  %48 = load ptr, ptr %9, align 8
  %49 = load double, ptr %48, align 8
  %50 = fcmp ogt double 1.000000e-01, %49
  br i1 %50, label %51, label %52

51:                                               ; preds = %47
  br label %55

52:                                               ; preds = %47
  %53 = load ptr, ptr %9, align 8
  %54 = load double, ptr %53, align 8
  br label %55

55:                                               ; preds = %52, %51
  %56 = phi double [ 1.000000e-01, %51 ], [ %54, %52 ]
  %57 = load ptr, ptr %10, align 8
  store double %56, ptr %57, align 8
  br label %58

58:                                               ; preds = %55
  %59 = getelementptr inbounds nuw %struct.VariableStatData, ptr %11, i32 0, i32 2
  %60 = load ptr, ptr %59, align 8
  %61 = icmp ne ptr %60, null
  br i1 %61, label %62, label %67

62:                                               ; preds = %58
  %63 = getelementptr inbounds nuw %struct.VariableStatData, ptr %11, i32 0, i32 3
  %64 = load ptr, ptr %63, align 8
  %65 = getelementptr inbounds nuw %struct.VariableStatData, ptr %11, i32 0, i32 2
  %66 = load ptr, ptr %65, align 8
  call void %64(ptr noundef %66)
  br label %67

67:                                               ; preds = %62, %58
  br label %68

68:                                               ; preds = %67
  br label %69

69:                                               ; preds = %68
  store i32 1, ptr %18, align 4
  br label %160

70:                                               ; preds = %43
  %71 = getelementptr inbounds nuw %struct.VariableStatData, ptr %11, i32 0, i32 2
  %72 = load ptr, ptr %71, align 8
  %73 = icmp ne ptr %72, null
  br i1 %73, label %74, label %82

74:                                               ; preds = %70
  call void @llvm.lifetime.start.p0(i64 8, ptr %19) #10
  %75 = getelementptr inbounds nuw %struct.VariableStatData, ptr %11, i32 0, i32 2
  %76 = load ptr, ptr %75, align 8
  %77 = call ptr @GETSTRUCT(ptr noundef %76)
  store ptr %77, ptr %19, align 8
  %78 = load ptr, ptr %19, align 8
  %79 = getelementptr inbounds nuw %struct.FormData_pg_statistic, ptr %78, i32 0, i32 3
  %80 = load float, ptr %79, align 4
  %81 = fpext float %80 to double
  store double %81, ptr %14, align 8
  call void @llvm.lifetime.end.p0(i64 8, ptr %19) #10
  br label %83

82:                                               ; preds = %70
  store double 0.000000e+00, ptr %14, align 8
  br label %83

83:                                               ; preds = %82, %74
  %84 = load double, ptr %14, align 8
  %85 = fsub double 1.000000e+00, %84
  %86 = load double, ptr %13, align 8
  %87 = fdiv double %85, %86
  store double %87, ptr %15, align 8
  %88 = getelementptr inbounds nuw %struct.VariableStatData, ptr %11, i32 0, i32 1
  %89 = load ptr, ptr %88, align 8
  %90 = icmp ne ptr %89, null
  br i1 %90, label %91, label %111

91:                                               ; preds = %83
  %92 = getelementptr inbounds nuw %struct.VariableStatData, ptr %11, i32 0, i32 1
  %93 = load ptr, ptr %92, align 8
  %94 = getelementptr inbounds nuw %struct.RelOptInfo, ptr %93, i32 0, i32 31
  %95 = load double, ptr %94, align 8
  %96 = fcmp ogt double %95, 0.000000e+00
  br i1 %96, label %97, label %111

97:                                               ; preds = %91
  %98 = getelementptr inbounds nuw %struct.VariableStatData, ptr %11, i32 0, i32 1
  %99 = load ptr, ptr %98, align 8
  %100 = getelementptr inbounds nuw %struct.RelOptInfo, ptr %99, i32 0, i32 3
  %101 = load double, ptr %100, align 8
  %102 = getelementptr inbounds nuw %struct.VariableStatData, ptr %11, i32 0, i32 1
  %103 = load ptr, ptr %102, align 8
  %104 = getelementptr inbounds nuw %struct.RelOptInfo, ptr %103, i32 0, i32 31
  %105 = load double, ptr %104, align 8
  %106 = fdiv double %101, %105
  %107 = load double, ptr %13, align 8
  %108 = fmul double %107, %106
  store double %108, ptr %13, align 8
  %109 = load double, ptr %13, align 8
  %110 = call double @clamp_row_est(double noundef %109)
  store double %110, ptr %13, align 8
  br label %111

111:                                              ; preds = %97, %91, %83
  %112 = load double, ptr %13, align 8
  %113 = load double, ptr %8, align 8
  %114 = fcmp ogt double %112, %113
  br i1 %114, label %115, label %118

115:                                              ; preds = %111
  %116 = load double, ptr %8, align 8
  %117 = fdiv double 1.000000e+00, %116
  store double %117, ptr %12, align 8
  br label %121

118:                                              ; preds = %111
  %119 = load double, ptr %13, align 8
  %120 = fdiv double 1.000000e+00, %119
  store double %120, ptr %12, align 8
  br label %121

121:                                              ; preds = %118, %115
  %122 = load double, ptr %15, align 8
  %123 = fcmp ogt double %122, 0.000000e+00
  br i1 %123, label %124, label %136

124:                                              ; preds = %121
  %125 = load ptr, ptr %9, align 8
  %126 = load double, ptr %125, align 8
  %127 = load double, ptr %15, align 8
  %128 = fcmp ogt double %126, %127
  br i1 %128, label %129, label %136

129:                                              ; preds = %124
  %130 = load ptr, ptr %9, align 8
  %131 = load double, ptr %130, align 8
  %132 = load double, ptr %15, align 8
  %133 = fdiv double %131, %132
  %134 = load double, ptr %12, align 8
  %135 = fmul double %134, %133
  store double %135, ptr %12, align 8
  br label %136

136:                                              ; preds = %129, %124, %121
  %137 = load double, ptr %12, align 8
  %138 = fcmp olt double %137, 0x3EB0C6F7A0B5ED8D
  br i1 %138, label %139, label %140

139:                                              ; preds = %136
  store double 0x3EB0C6F7A0B5ED8D, ptr %12, align 8
  br label %145

140:                                              ; preds = %136
  %141 = load double, ptr %12, align 8
  %142 = fcmp ogt double %141, 1.000000e+00
  br i1 %142, label %143, label %144

143:                                              ; preds = %140
  store double 1.000000e+00, ptr %12, align 8
  br label %144

144:                                              ; preds = %143, %140
  br label %145

145:                                              ; preds = %144, %139
  %146 = load double, ptr %12, align 8
  %147 = load ptr, ptr %10, align 8
  store double %146, ptr %147, align 8
  br label %148

148:                                              ; preds = %145
  %149 = getelementptr inbounds nuw %struct.VariableStatData, ptr %11, i32 0, i32 2
  %150 = load ptr, ptr %149, align 8
  %151 = icmp ne ptr %150, null
  br i1 %151, label %152, label %157

152:                                              ; preds = %148
  %153 = getelementptr inbounds nuw %struct.VariableStatData, ptr %11, i32 0, i32 3
  %154 = load ptr, ptr %153, align 8
  %155 = getelementptr inbounds nuw %struct.VariableStatData, ptr %11, i32 0, i32 2
  %156 = load ptr, ptr %155, align 8
  call void %154(ptr noundef %156)
  br label %157

157:                                              ; preds = %152, %148
  br label %158

158:                                              ; preds = %157
  br label %159

159:                                              ; preds = %158
  store i32 0, ptr %18, align 4
  br label %160

160:                                              ; preds = %159, %69
  call void @llvm.lifetime.end.p0(i64 64, ptr %17) #10
  call void @llvm.lifetime.end.p0(i64 1, ptr %16) #10
  call void @llvm.lifetime.end.p0(i64 8, ptr %15) #10
  call void @llvm.lifetime.end.p0(i64 8, ptr %14) #10
  call void @llvm.lifetime.end.p0(i64 8, ptr %13) #10
  call void @llvm.lifetime.end.p0(i64 8, ptr %12) #10
  call void @llvm.lifetime.end.p0(i64 48, ptr %11) #10
  %161 = load i32, ptr %18, align 4
  switch i32 %161, label %163 [
    i32 0, label %162
    i32 1, label %162
  ]

162:                                              ; preds = %160, %160
  ret void

163:                                              ; preds = %160
  unreachable
}