; Function Attrs: nounwind uwtable
define dso_local void @estimate_hash_bucket_stats(ptr noundef %0, ptr noundef %1, double noundef %2, ptr noundef captures(none) initializes((0, 8)) %3, ptr noundef writeonly captures(none) initializes((0, 8)) %4) local_unnamed_addr #0 {
  %6 = alloca %struct.VariableStatData, align 8
  %7 = alloca i8, align 1
  %8 = alloca %struct.AttStatsSlot, align 8
  call void @llvm.lifetime.start.p0(i64 48, ptr nonnull %6) #12
  call void @llvm.lifetime.start.p0(i64 1, ptr nonnull %7) #12
  call void @llvm.lifetime.start.p0(i64 64, ptr nonnull %8) #12
  call void @examine_variable(ptr noundef %0, ptr noundef %1, i32 noundef 0, ptr noundef nonnull %6)
  store double 0.000000e+00, ptr %3, align 8
  %9 = getelementptr inbounds nuw i8, ptr %6, i64 16
  %10 = load ptr, ptr %9, align 8
  %.not = icmp eq ptr %10, null
  br i1 %.not, label %23, label %11

11:                                               ; preds = %5
  %12 = call zeroext i1 @get_attstatsslot(ptr noundef nonnull %8, ptr noundef nonnull %10, i32 noundef 1, i32 noundef 0, i32 noundef 2) #12
  br i1 %12, label %13, label %23

13:                                               ; preds = %11
  %14 = getelementptr inbounds nuw i8, ptr %8, i64 40
  %15 = load i32, ptr %14, align 8
  %16 = icmp sgt i32 %15, 0
  br i1 %16, label %17, label %22

17:                                               ; preds = %13
  %18 = getelementptr inbounds nuw i8, ptr %8, i64 32
  %19 = load ptr, ptr %18, align 8
  %20 = load float, ptr %19, align 4
  %21 = fpext float %20 to double
  store double %21, ptr %3, align 8
  br label %22

22:                                               ; preds = %17, %13
  call void @free_attstatsslot(ptr noundef nonnull %8) #12
  br label %23

23:                                               ; preds = %11, %22, %5
  %24 = call double @get_variable_numdistinct(ptr noundef nonnull %6, ptr noundef nonnull %7)
  %25 = load i8, ptr %7, align 1, !range !4, !noundef !5
  %26 = trunc nuw i8 %25 to i1
  br i1 %26, label %27, label %32

27:                                               ; preds = %23
  %28 = load double, ptr %3, align 8
  %29 = fcmp olt double %28, 1.000000e-01
  %30 = select i1 %29, double 1.000000e-01, double %28
  store double %30, ptr %4, align 8
  %31 = load ptr, ptr %9, align 8
  %.not41 = icmp eq ptr %31, null
  br i1 %.not41, label %76, label %.sink.split

32:                                               ; preds = %23
  %33 = load ptr, ptr %9, align 8
  %.not38 = icmp eq ptr %33, null
  br i1 %.not38, label %43, label %34

34:                                               ; preds = %32
  %35 = getelementptr i8, ptr %33, i64 16
  %.val = load ptr, ptr %35, align 8
  %36 = getelementptr inbounds nuw i8, ptr %.val, i64 22
  %37 = load i8, ptr %36, align 2
  %38 = zext i8 %37 to i64
  %39 = getelementptr inbounds nuw i8, ptr %.val, i64 %38
  %40 = getelementptr inbounds nuw i8, ptr %39, i64 8
  %41 = load float, ptr %40, align 4
  %42 = fpext float %41 to double
  br label %43

43:                                               ; preds = %32, %34
  %.027 = phi double [ %42, %34 ], [ 0.000000e+00, %32 ]
  %44 = fsub double 1.000000e+00, %.027
  %45 = fdiv double %44, %24
  %46 = getelementptr inbounds nuw i8, ptr %6, i64 8
  %47 = load ptr, ptr %46, align 8
  %.not39 = icmp eq ptr %47, null
  br i1 %.not39, label %58, label %48

48:                                               ; preds = %43
  %49 = getelementptr inbounds nuw i8, ptr %47, i64 200
  %50 = load double, ptr %49, align 8
  %51 = fcmp ogt double %50, 0.000000e+00
  br i1 %51, label %52, label %58

52:                                               ; preds = %48
  %53 = getelementptr inbounds nuw i8, ptr %47, i64 16
  %54 = load double, ptr %53, align 8
  %55 = fdiv double %54, %50
  %56 = fmul double %24, %55
  %57 = call double @clamp_row_est(double noundef %56) #12
  br label %58

58:                                               ; preds = %52, %48, %43
  %.026 = phi double [ %57, %52 ], [ %24, %48 ], [ %24, %43 ]
  %59 = fcmp ogt double %.026, %2
  %..026 = select i1 %59, double %2, double %.026
  %.0 = fdiv double 1.000000e+00, %..026
  %60 = fcmp ogt double %45, 0.000000e+00
  br i1 %60, label %61, label %67

61:                                               ; preds = %58
  %62 = load double, ptr %3, align 8
  %63 = fcmp ogt double %62, %45
  br i1 %63, label %64, label %67

64:                                               ; preds = %61
  %65 = fdiv double %62, %45
  %66 = fmul double %.0, %65
  br label %67

67:                                               ; preds = %64, %61, %58
  %.1 = phi double [ %66, %64 ], [ %.0, %61 ], [ %.0, %58 ]
  %68 = fcmp olt double %.1, 0x3EB0C6F7A0B5ED8D
  br i1 %68, label %72, label %69

69:                                               ; preds = %67
  %70 = fcmp ogt double %.1, 1.000000e+00
  br i1 %70, label %71, label %72

71:                                               ; preds = %69
  br label %72

72:                                               ; preds = %67, %69, %71
  %.2 = phi double [ 1.000000e+00, %71 ], [ %.1, %69 ], [ 0x3EB0C6F7A0B5ED8D, %67 ]
  store double %.2, ptr %4, align 8
  %73 = load ptr, ptr %9, align 8
  %.not40 = icmp eq ptr %73, null
  br i1 %.not40, label %76, label %.sink.split

.sink.split:                                      ; preds = %72, %27
  %.sink = phi ptr [ %31, %27 ], [ %73, %72 ]
  %74 = getelementptr inbounds nuw i8, ptr %6, i64 24
  %75 = load ptr, ptr %74, align 8
  call void %75(ptr noundef nonnull %.sink) #12
  br label %76

76:                                               ; preds = %.sink.split, %72, %27
  call void @llvm.lifetime.end.p0(i64 64, ptr nonnull %8) #12
  call void @llvm.lifetime.end.p0(i64 1, ptr nonnull %7) #12
  call void @llvm.lifetime.end.p0(i64 48, ptr nonnull %6) #12
  ret void
}